target datalayout = "e-m:e-p270:32:32-p271:32:32-p272:64:64-i64:64-i128:128-f80:128-n8:16:32:64-S128"
target triple = "x86_64-pc-linux-gnu"

%"class.std::__cxx11::basic_string" = type { %"struct.std::__cxx11::basic_string<char>::_Alloc_hider", i64, %union.anon.2 }
%"struct.std::__cxx11::basic_string<char>::_Alloc_hider" = type { ptr }
%union.anon.2 = type { i64, [8 x i8] }
%"struct.std::_Vector_base" = type { %"struct.std::_Vector_base<unsigned int, std::allocator<unsigned int>>::_Vector_impl" }
%"struct.std::_Vector_base<unsigned int, std::allocator<unsigned int>>::_Vector_impl" = type { %"struct.std::_Vector_base<unsigned int, std::allocator<unsigned int>>::_Vector_impl_data" }
%"struct.std::_Vector_base<unsigned int, std::allocator<unsigned int>>::_Vector_impl_data" = type { ptr, ptr, ptr }
%"class.__gnu_cxx::__normal_iterator" = type { ptr }

; Function Attrs: mustprogress nounwind uwtable
define linkonce_odr noundef nonnull align 8 dereferenceable(8) ptr @_ZNK9__gnu_cxx17__normal_iteratorIPKjSt6vectorIjSaIjEEE4baseEv(ptr noundef nonnull align 8 dereferenceable(8) %0) #4 comdat align 2 {
  %2 = alloca ptr, align 8
  store ptr %0, ptr %2, align 8
  %3 = load ptr, ptr %2, align 8
  %4 = getelementptr inbounds %"class.__gnu_cxx::__normal_iterator", ptr %3, i32 0, i32 0
  ret ptr %4
}

; Function Attrs: mustprogress nounwind uwtable
define linkonce_odr void @_ZN9__gnu_cxx17__normal_iteratorIPKjSt6vectorIjSaIjEEEC2ERKS2_(ptr noundef nonnull align 8 dereferenceable(8) %0, ptr noundef nonnull align 8 dereferenceable(8) %1) unnamed_addr #4 comdat align 2 {
  %3 = alloca ptr, align 8
  %4 = alloca ptr, align 8
  store ptr %0, ptr %3, align 8
  store ptr %1, ptr %4, align 8
  %5 = load ptr, ptr %3, align 8
  %6 = getelementptr inbounds %"class.__gnu_cxx::__normal_iterator", ptr %5, i32 0, i32 0
  %7 = load ptr, ptr %4, align 8
  %8 = load ptr, ptr %7, align 8
  store ptr %8, ptr %6, align 8
  ret void
}

; Function Attrs: mustprogress nounwind uwtable
define linkonce_odr noundef nonnull align 8 dereferenceable(8) ptr @_ZN9__gnu_cxx17__normal_iteratorIPKjSt6vectorIjSaIjEEEppEv(ptr noundef nonnull align 8 dereferenceable(8) %0) #4 comdat align 2 {
  %2 = alloca ptr, align 8
  store ptr %0, ptr %2, align 8
  %3 = load ptr, ptr %2, align 8
  %4 = getelementptr inbounds %"class.__gnu_cxx::__normal_iterator", ptr %3, i32 0, i32 0
  %5 = load ptr, ptr %4, align 8
  %6 = getelementptr inbounds i32, ptr %5, i32 1
  store ptr %6, ptr %4, align 8
  ret ptr %3
}

; Function Attrs: mustprogress nounwind uwtable
define noundef i64 @_ZN13sentencepiece11string_util10EncodeUTF8EjPc(i32 noundef %0, ptr noundef %1) #4 {
  %3 = alloca i64, align 8
  %4 = alloca i32, align 4
  %5 = alloca ptr, align 8
  store i32 %0, ptr %4, align 4
  store ptr %1, ptr %5, align 8
  %6 = load i32, ptr %4, align 4
  %7 = icmp ule i32 %6, 127
  br i1 %7, label %8, label %12

8:                                                ; preds = %2
  %9 = load i32, ptr %4, align 4
  %10 = trunc i32 %9 to i8
  %11 = load ptr, ptr %5, align 8
  store i8 %10, ptr %11, align 1
  store i64 1, ptr %3, align 8
  br label %88

12:                                               ; preds = %2
  %13 = load i32, ptr %4, align 4
  %14 = icmp ule i32 %13, 2047
  br i1 %14, label %15, label %29

15:                                               ; preds = %12
  %16 = load i32, ptr %4, align 4
  %17 = and i32 %16, 63
  %18 = or i32 128, %17
  %19 = trunc i32 %18 to i8
  %20 = load ptr, ptr %5, align 8
  %21 = getelementptr inbounds i8, ptr %20, i64 1
  store i8 %19, ptr %21, align 1
  %22 = load i32, ptr %4, align 4
  %23 = lshr i32 %22, 6
  store i32 %23, ptr %4, align 4
  %24 = load i32, ptr %4, align 4
  %25 = or i32 192, %24
  %26 = trunc i32 %25 to i8
  %27 = load ptr, ptr %5, align 8
  %28 = getelementptr inbounds i8, ptr %27, i64 0
  store i8 %26, ptr %28, align 1
  store i64 2, ptr %3, align 8
  br label %88

29:                                               ; preds = %12
  %30 = load i32, ptr %4, align 4
  %31 = icmp ugt i32 %30, 1114111
  br i1 %31, label %32, label %33

32:                                               ; preds = %29
  store i32 65533, ptr %4, align 4
  br label %33

33:                                               ; preds = %32, %29
  %34 = load i32, ptr %4, align 4
  %35 = icmp ule i32 %34, 65535
  br i1 %35, label %36, label %58

36:                                               ; preds = %33
  %37 = load i32, ptr %4, align 4
  %38 = and i32 %37, 63
  %39 = or i32 128, %38
  %40 = trunc i32 %39 to i8
  %41 = load ptr, ptr %5, align 8
  %42 = getelementptr inbounds i8, ptr %41, i64 2
  store i8 %40, ptr %42, align 1
  %43 = load i32, ptr %4, align 4
  %44 = lshr i32 %43, 6
  store i32 %44, ptr %4, align 4
  %45 = load i32, ptr %4, align 4
  %46 = and i32 %45, 63
  %47 = or i32 128, %46
  %48 = trunc i32 %47 to i8
  %49 = load ptr, ptr %5, align 8
  %50 = getelementptr inbounds i8, ptr %49, i64 1
  store i8 %48, ptr %50, align 1
  %51 = load i32, ptr %4, align 4
  %52 = lshr i32 %51, 6
  store i32 %52, ptr %4, align 4
  %53 = load i32, ptr %4, align 4
  %54 = or i32 224, %53
  %55 = trunc i32 %54 to i8
  %56 = load ptr, ptr %5, align 8
  %57 = getelementptr inbounds i8, ptr %56, i64 0
  store i8 %55, ptr %57, align 1
  store i64 3, ptr %3, align 8
  br label %88

58:                                               ; preds = %33
  %59 = load i32, ptr %4, align 4
  %60 = and i32 %59, 63
  %61 = or i32 128, %60
  %62 = trunc i32 %61 to i8
  %63 = load ptr, ptr %5, align 8
  %64 = getelementptr inbounds i8, ptr %63, i64 3
  store i8 %62, ptr %64, align 1
  %65 = load i32, ptr %4, align 4
  %66 = lshr i32 %65, 6
  store i32 %66, ptr %4, align 4
  %67 = load i32, ptr %4, align 4
  %68 = and i32 %67, 63
  %69 = or i32 128, %68
  %70 = trunc i32 %69 to i8
  %71 = load ptr, ptr %5, align 8
  %72 = getelementptr inbounds i8, ptr %71, i64 2
  store i8 %70, ptr %72, align 1
  %73 = load i32, ptr %4, align 4
  %74 = lshr i32 %73, 6
  store i32 %74, ptr %4, align 4
  %75 = load i32, ptr %4, align 4
  %76 = and i32 %75, 63
  %77 = or i32 128, %76
  %78 = trunc i32 %77 to i8
  %79 = load ptr, ptr %5, align 8
  %80 = getelementptr inbounds i8, ptr %79, i64 1
  store i8 %78, ptr %80, align 1
  %81 = load i32, ptr %4, align 4
  %82 = lshr i32 %81, 6
  store i32 %82, ptr %4, align 4
  %83 = load i32, ptr %4, align 4
  %84 = or i32 240, %83
  %85 = trunc i32 %84 to i8
  %86 = load ptr, ptr %5, align 8
  %87 = getelementptr inbounds i8, ptr %86, i64 0
  store i8 %85, ptr %87, align 1
  store i64 4, ptr %3, align 8
  br label %88

88:                                               ; preds = %58, %36, %15, %8
  %89 = load i64, ptr %3, align 8
  ret i64 %89
}

; Function Attrs: mustprogress nounwind uwtable
define linkonce_odr noundef nonnull align 4 dereferenceable(4) ptr @_ZNK9__gnu_cxx17__normal_iteratorIPKjSt6vectorIjSaIjEEEdeEv(ptr noundef nonnull align 8 dereferenceable(8) %0) #4 comdat align 2 {
  %2 = alloca ptr, align 8
  store ptr %0, ptr %2, align 8
  %3 = load ptr, ptr %2, align 8
  %4 = getelementptr inbounds %"class.__gnu_cxx::__normal_iterator", ptr %3, i32 0, i32 0
  %5 = load ptr, ptr %4, align 8
  ret ptr %5
}

; Function Attrs: mustprogress nounwind uwtable
define linkonce_odr noundef zeroext i1 @_ZN9__gnu_cxxneIPKjSt6vectorIjSaIjEEEEbRKNS_17__normal_iteratorIT_T0_EESB_(ptr noundef nonnull align 8 dereferenceable(8) %0, ptr noundef nonnull align 8 dereferenceable(8) %1) #4 comdat {
  %3 = alloca ptr, align 8
  %4 = alloca ptr, align 8
  store ptr %0, ptr %3, align 8
  store ptr %1, ptr %4, align 8
  %5 = load ptr, ptr %3, align 8
  %6 = call noundef nonnull align 8 dereferenceable(8) ptr @_ZNK9__gnu_cxx17__normal_iteratorIPKjSt6vectorIjSaIjEEE4baseEv(ptr noundef nonnull align 8 dereferenceable(8) %5) #3
  %7 = load ptr, ptr %6, align 8
  %8 = load ptr, ptr %4, align 8
  %9 = call noundef nonnull align 8 dereferenceable(8) ptr @_ZNK9__gnu_cxx17__normal_iteratorIPKjSt6vectorIjSaIjEEE4baseEv(ptr noundef nonnull align 8 dereferenceable(8) %8) #3
  %10 = load ptr, ptr %9, align 8
  %11 = icmp ne ptr %7, %10
  ret i1 %11
}

; Function Attrs: mustprogress nounwind uwtable
define linkonce_odr ptr @_ZNKSt6vectorIjSaIjEE3endEv(ptr noundef nonnull align 8 dereferenceable(24) %0) #4 comdat align 2 {
  %2 = alloca %"class.__gnu_cxx::__normal_iterator", align 8
  %3 = alloca ptr, align 8
  store ptr %0, ptr %3, align 8
  %4 = load ptr, ptr %3, align 8
  %5 = getelementptr inbounds %"struct.std::_Vector_base", ptr %4, i32 0, i32 0
  %6 = getelementptr inbounds %"struct.std::_Vector_base<unsigned int, std::allocator<unsigned int>>::_Vector_impl_data", ptr %5, i32 0, i32 1
  call void @_ZN9__gnu_cxx17__normal_iteratorIPKjSt6vectorIjSaIjEEEC2ERKS2_(ptr noundef nonnull align 8 dereferenceable(8) %2, ptr noundef nonnull align 8 dereferenceable(8) %6) #3
  %7 = getelementptr inbounds %"class.__gnu_cxx::__normal_iterator", ptr %2, i32 0, i32 0
  %8 = load ptr, ptr %7, align 8
  ret ptr %8
}

; Function Attrs: mustprogress nounwind uwtable
define linkonce_odr ptr @_ZNKSt6vectorIjSaIjEE5beginEv(ptr noundef nonnull align 8 dereferenceable(24) %0) #4 comdat align 2 {
  %2 = alloca %"class.__gnu_cxx::__normal_iterator", align 8
  %3 = alloca ptr, align 8
  store ptr %0, ptr %3, align 8
  %4 = load ptr, ptr %3, align 8
  %5 = getelementptr inbounds %"struct.std::_Vector_base", ptr %4, i32 0, i32 0
  %6 = getelementptr inbounds %"struct.std::_Vector_base<unsigned int, std::allocator<unsigned int>>::_Vector_impl_data", ptr %5, i32 0, i32 0
  call void @_ZN9__gnu_cxx17__normal_iteratorIPKjSt6vectorIjSaIjEEEC2ERKS2_(ptr noundef nonnull align 8 dereferenceable(8) %2, ptr noundef nonnull align 8 dereferenceable(8) %6) #3
  %7 = getelementptr inbounds %"class.__gnu_cxx::__normal_iterator", ptr %2, i32 0, i32 0
  %8 = load ptr, ptr %7, align 8
  ret ptr %8
}

; Function Attrs: mustprogress uwtable
define void @_ZN13sentencepiece11string_util17UnicodeTextToUTF8B5cxx11ERKSt6vectorIjSaIjEE(ptr dead_on_unwind noalias writable sret(%"class.std::__cxx11::basic_string") align 8 %0, ptr noundef nonnull align 8 dereferenceable(24) %1) #5 personality ptr @__gxx_personality_v0 {
  %3 = alloca ptr, align 8
  %4 = alloca ptr, align 8
  %5 = alloca [8 x i8], align 1
  %6 = alloca i1, align 1
  %7 = alloca ptr, align 8
  %8 = alloca %"class.__gnu_cxx::__normal_iterator", align 8
  %9 = alloca %"class.__gnu_cxx::__normal_iterator", align 8
  %10 = alloca i32, align 4
  %11 = alloca i64, align 8
  %12 = alloca ptr, align 8
  %13 = alloca i32, align 4
  store ptr %0, ptr %3, align 8
  store ptr %1, ptr %4, align 8
  store i1 false, ptr %6, align 1
  call void @_ZNSt7__cxx1112basic_stringIcSt11char_traitsIcESaIcEEC1Ev(ptr noundef nonnull align 8 dereferenceable(32) %0) #3
  %14 = load ptr, ptr %4, align 8
  store ptr %14, ptr %7, align 8
  %15 = load ptr, ptr %7, align 8
  %16 = call ptr @_ZNKSt6vectorIjSaIjEE5beginEv(ptr noundef nonnull align 8 dereferenceable(24) %15) #3
  %17 = getelementptr inbounds %"class.__gnu_cxx::__normal_iterator", ptr %8, i32 0, i32 0
  store ptr %16, ptr %17, align 8
  %18 = load ptr, ptr %7, align 8
  %19 = call ptr @_ZNKSt6vectorIjSaIjEE3endEv(ptr noundef nonnull align 8 dereferenceable(24) %18) #3
  %20 = getelementptr inbounds %"class.__gnu_cxx::__normal_iterator", ptr %9, i32 0, i32 0
  store ptr %19, ptr %20, align 8
  br label %21

21:                                               ; preds = %33, %2
  %22 = call noundef zeroext i1 @_ZN9__gnu_cxxneIPKjSt6vectorIjSaIjEEEEbRKNS_17__normal_iteratorIT_T0_EESB_(ptr noundef nonnull align 8 dereferenceable(8) %8, ptr noundef nonnull align 8 dereferenceable(8) %9) #3
  br i1 %22, label %23, label %39

23:                                               ; preds = %21
  %24 = call noundef nonnull align 4 dereferenceable(4) ptr @_ZNK9__gnu_cxx17__normal_iteratorIPKjSt6vectorIjSaIjEEEdeEv(ptr noundef nonnull align 8 dereferenceable(8) %8) #3
  %25 = load i32, ptr %24, align 4
  store i32 %25, ptr %10, align 4
  %26 = load i32, ptr %10, align 4
  %27 = getelementptr inbounds [8 x i8], ptr %5, i64 0, i64 0
  %28 = call noundef i64 @_ZN13sentencepiece11string_util10EncodeUTF8EjPc(i32 noundef %26, ptr noundef %27)
  store i64 %28, ptr %11, align 8
  %29 = getelementptr inbounds [8 x i8], ptr %5, i64 0, i64 0
  %30 = load i64, ptr %11, align 8
  %31 = invoke noundef nonnull align 8 dereferenceable(32) ptr @_ZNSt7__cxx1112basic_stringIcSt11char_traitsIcESaIcEE6appendEPKcm(ptr noundef nonnull align 8 dereferenceable(32) %0, ptr noundef %29, i64 noundef %30)
          to label %32 unwind label %35

32:                                               ; preds = %23
  br label %33

33:                                               ; preds = %32
  %34 = call noundef nonnull align 8 dereferenceable(8) ptr @_ZN9__gnu_cxx17__normal_iteratorIPKjSt6vectorIjSaIjEEEppEv(ptr noundef nonnull align 8 dereferenceable(8) %8) #3
  br label %21

35:                                               ; preds = %23
  %36 = landingpad { ptr, i32 }
          cleanup
  %37 = extractvalue { ptr, i32 } %36, 0
  store ptr %37, ptr %12, align 8
  %38 = extractvalue { ptr, i32 } %36, 1
  store i32 %38, ptr %13, align 4
  call void @_ZNSt7__cxx1112basic_stringIcSt11char_traitsIcESaIcEED1Ev(ptr noundef nonnull align 8 dereferenceable(32) %0) #3
  br label %43

39:                                               ; preds = %21
  store i1 true, ptr %6, align 1
  %40 = load i1, ptr %6, align 1
  br i1 %40, label %42, label %41

41:                                               ; preds = %39
  call void @_ZNSt7__cxx1112basic_stringIcSt11char_traitsIcESaIcEED1Ev(ptr noundef nonnull align 8 dereferenceable(32) %0) #3
  br label %42

42:                                               ; preds = %41, %39
  ret void

43:                                               ; preds = %35
  %44 = load ptr, ptr %12, align 8
  %45 = load i32, ptr %13, align 4
  %46 = insertvalue { ptr, i32 } poison, ptr %44, 0
  %47 = insertvalue { ptr, i32 } %46, i32 %45, 1
  resume { ptr, i32 } %47
}