; Function Attrs: mustprogress uwtable
define void @_ZN13sentencepiece11string_util17UnicodeTextToUTF8B5cxx11ERKSt6vectorIjSaIjEE(ptr dead_on_unwind noalias nonnull writable sret(%"class.std::__cxx11::basic_string") align 8 %0, ptr nocapture noundef nonnull readonly align 8 dereferenceable(24) %1) local_unnamed_addr #4 personality ptr @__gxx_personality_v0 {
  %3 = alloca [8 x i8], align 1
  tail call void @_ZNSt7__cxx1112basic_stringIcSt11char_traitsIcESaIcEEC1Ev(ptr noundef nonnull align 8 dereferenceable(32) %0) #9
  %4 = load ptr, ptr %1, align 8
  %5 = getelementptr inbounds i8, ptr %1, i64 8
  %6 = load ptr, ptr %5, align 8
  %.not10 = icmp eq ptr %4, %6
  br i1 %.not10, label %._crit_edge, label %.lr.ph

.lr.ph:                                           ; preds = %2
  %7 = getelementptr inbounds i8, ptr %3, i64 3
  %8 = getelementptr inbounds i8, ptr %3, i64 2
  %9 = getelementptr inbounds i8, ptr %3, i64 1
  br label %10

10:                                               ; preds = %.lr.ph, %45
  %.sroa.07.011 = phi ptr [ %4, %.lr.ph ], [ %46, %45 ]
  %11 = load i32, ptr %.sroa.07.011, align 4
  %12 = icmp ult i32 %11, 128
  br i1 %12, label %13, label %15

13:                                               ; preds = %10
  %14 = trunc nuw nsw i32 %11 to i8
  br label %_ZN13sentencepiece11string_util10EncodeUTF8EjPc.exit

15:                                               ; preds = %10
  %16 = icmp ult i32 %11, 2048
  br i1 %16, label %17, label %24

17:                                               ; preds = %15
  %18 = trunc i32 %11 to i8
  %19 = and i8 %18, 63
  %20 = or disjoint i8 %19, -128
  store i8 %20, ptr %9, align 1
  %21 = lshr i32 %11, 6
  %22 = trunc nuw i32 %21 to i8
  %23 = or disjoint i8 %22, -64
  br label %_ZN13sentencepiece11string_util10EncodeUTF8EjPc.exit

24:                                               ; preds = %15
  %25 = icmp ugt i32 %11, 1114111
  %spec.store.select.i = select i1 %25, i32 65533, i32 %11
  %26 = icmp ult i32 %spec.store.select.i, 65536
  %27 = trunc i32 %spec.store.select.i to i8
  %28 = and i8 %27, 63
  %29 = or disjoint i8 %28, -128
  %30 = lshr i32 %spec.store.select.i, 6
  %31 = trunc i32 %30 to i8
  %32 = and i8 %31, 63
  %33 = or disjoint i8 %32, -128
  %34 = lshr i32 %spec.store.select.i, 12
  %35 = trunc i32 %34 to i8
  br i1 %26, label %36, label %38

36:                                               ; preds = %24
  store i8 %29, ptr %8, align 1
  store i8 %33, ptr %9, align 1
  %37 = or disjoint i8 %35, -32
  br label %_ZN13sentencepiece11string_util10EncodeUTF8EjPc.exit

38:                                               ; preds = %24
  store i8 %29, ptr %7, align 1
  store i8 %33, ptr %8, align 1
  %39 = and i8 %35, 63
  %40 = or disjoint i8 %39, -128
  store i8 %40, ptr %9, align 1
  %41 = lshr i32 %spec.store.select.i, 18
  %42 = trunc nuw nsw i32 %41 to i8
  %43 = or disjoint i8 %42, -16
  br label %_ZN13sentencepiece11string_util10EncodeUTF8EjPc.exit

_ZN13sentencepiece11string_util10EncodeUTF8EjPc.exit: ; preds = %13, %17, %36, %38
  %.sink.i = phi i8 [ %43, %38 ], [ %37, %36 ], [ %23, %17 ], [ %14, %13 ]
  %.0.i = phi i64 [ 4, %38 ], [ 3, %36 ], [ 2, %17 ], [ 1, %13 ]
  store i8 %.sink.i, ptr %3, align 1
  %44 = invoke noundef nonnull align 8 dereferenceable(32) ptr @_ZNSt7__cxx1112basic_stringIcSt11char_traitsIcESaIcEE6appendEPKcm(ptr noundef nonnull align 8 dereferenceable(32) %0, ptr noundef nonnull %3, i64 noundef %.0.i)
          to label %45 unwind label %47

45:                                               ; preds = %_ZN13sentencepiece11string_util10EncodeUTF8EjPc.exit
  %46 = getelementptr inbounds i8, ptr %.sroa.07.011, i64 4
  %.not = icmp eq ptr %46, %6
  br i1 %.not, label %._crit_edge, label %10

47:                                               ; preds = %_ZN13sentencepiece11string_util10EncodeUTF8EjPc.exit
  %48 = landingpad { ptr, i32 }
          cleanup
  call void @_ZNSt7__cxx1112basic_stringIcSt11char_traitsIcESaIcEED1Ev(ptr noundef nonnull align 8 dereferenceable(32) %0) #9
  resume { ptr, i32 } %48

._crit_edge:                                      ; preds = %45, %2
  ret void
}